target datalayout = "e-m:e-p270:32:32-p271:32:32-p272:64:64-i64:64-i128:128-f80:128-n8:16:32:64-S128"
target triple = "x86_64-pc-linux-gnu"

%"class.icu_77::PtnSkeleton" = type <{ ptr, [16 x i32], %"class.icu_77::SkeletonFields", %"class.icu_77::SkeletonFields", i8, [7 x i8] }>
%"class.icu_77::SkeletonFields" = type { [16 x i8], [16 x i8] }

@_ZTVN6icu_7711PtnSkeletonE = unnamed_addr constant { [4 x ptr] } { [4 x ptr] [ptr null, ptr @_ZTIN6icu_7711PtnSkeletonE, ptr @_ZN6icu_7711PtnSkeletonD1Ev, ptr @_ZN6icu_7711PtnSkeletonD0Ev] }, align 8
@_ZN6icu_7714SkeletonFieldsC1Ev = unnamed_addr alias void (ptr), ptr @_ZN6icu_7714SkeletonFieldsC2Ev

; Function Attrs: mustprogress uwtable
define void @_ZN6icu_7711PtnSkeletonC2Ev(ptr noundef nonnull align 8 dereferenceable(137) %0) unnamed_addr #1 align 2 {
  %2 = alloca ptr, align 8
  store ptr %0, ptr %2, align 8, !tbaa !72
  %3 = load ptr, ptr %2, align 8
  store ptr getelementptr inbounds inrange(-16, 16) ({ [4 x ptr] }, ptr @_ZTVN6icu_7711PtnSkeletonE, i32 0, i32 0, i32 2), ptr %3, align 8, !tbaa !37
  %4 = getelementptr inbounds nuw %"class.icu_77::PtnSkeleton", ptr %3, i32 0, i32 2
  call void @_ZN6icu_7714SkeletonFieldsC1Ev(ptr noundef nonnull align 1 dereferenceable(32) %4)
  %5 = getelementptr inbounds nuw %"class.icu_77::PtnSkeleton", ptr %3, i32 0, i32 3
  call void @_ZN6icu_7714SkeletonFieldsC1Ev(ptr noundef nonnull align 1 dereferenceable(32) %5)
  %6 = getelementptr inbounds nuw %"class.icu_77::PtnSkeleton", ptr %3, i32 0, i32 4
  store i8 0, ptr %6, align 8, !tbaa !133
  ret void
}