; Function Attrs: mustprogress uwtable
define void @_ZN6icu_7711PtnSkeletonC2Ev(ptr noundef nonnull align 8 dereferenceable(137) initializes((0, 8)) %0) unnamed_addr #1 align 2 {
  store ptr getelementptr inbounds nuw inrange(-16, 16) (i8, ptr @_ZTVN6icu_7711PtnSkeletonE, i64 16), ptr %0, align 8, !tbaa !15
  %2 = getelementptr inbounds nuw i8, ptr %0, i64 72
  tail call void @_ZN6icu_7714SkeletonFieldsC1Ev(ptr noundef nonnull align 1 dereferenceable(32) %2)
  %3 = getelementptr inbounds nuw i8, ptr %0, i64 104
  tail call void @_ZN6icu_7714SkeletonFieldsC1Ev(ptr noundef nonnull align 1 dereferenceable(32) %3)
  %4 = getelementptr inbounds nuw i8, ptr %0, i64 136
  store i8 0, ptr %4, align 8, !tbaa !42
  ret void
}